target datalayout = "e-m:e-p270:32:32-p271:32:32-p272:64:64-i64:64-i128:128-f80:128-n8:16:32:64-S128"
target triple = "x86_64-pc-linux-gnu"

%class.ElfFile = type { ptr, ptr, ptr, ptr, ptr, ptr, ptr, ptr, i32, ptr, %struct.Elf64_Ehdr }
%struct.Elf64_Ehdr = type { [16 x i8], i16, i16, i32, i64, i64, i64, i32, i16, i16, i16, i16, i16, i16 }

@_ZTV7ElfFile = hidden unnamed_addr constant { [4 x ptr] } { [4 x ptr] [ptr null, ptr null, ptr @_ZN7ElfFileD1Ev, ptr @_ZN7ElfFileD0Ev] }, align 8

; Function Attrs: mustprogress nounwind uwtable
define linkonce_odr hidden void @_ZN12CHeapObjBasedlEPv(ptr noundef %0) #1 comdat align 2 {
  %2 = alloca ptr, align 8
  store ptr %0, ptr %2, align 8
  %3 = load ptr, ptr %2, align 8
  call void @_Z8FreeHeapPv(ptr noundef %3)
  ret void
}

; Function Attrs: mustprogress nounwind uwtable
define linkonce_odr hidden void @_ZN8CHeapObjIL8MEMFLAGS9EEdlEPv(ptr noundef %0) #1 comdat align 2 {
  %2 = alloca ptr, align 8
  store ptr %0, ptr %2, align 8
  %3 = load ptr, ptr %2, align 8
  call void @_ZN12CHeapObjBasedlEPv(ptr noundef %3) #7
  ret void
}

; Function Attrs: mustprogress nounwind uwtable
define hidden void @_ZN7ElfFile14cleanup_tablesEv(ptr noundef nonnull align 8 dereferenceable(144) %0) #1 align 2 {
  %2 = alloca ptr, align 8
  store ptr %0, ptr %2, align 8
  %3 = load ptr, ptr %2, align 8
  %4 = getelementptr inbounds %class.ElfFile, ptr %3, i32 0, i32 5
  %5 = load ptr, ptr %4, align 8
  %6 = icmp ne ptr %5, null
  br i1 %6, label %7, label %14

7:                                                ; preds = %1
  %8 = getelementptr inbounds %class.ElfFile, ptr %3, i32 0, i32 5
  %9 = load ptr, ptr %8, align 8
  %10 = icmp eq ptr %9, null
  br i1 %10, label %12, label %11

11:                                               ; preds = %7
  call void @_ZN14ElfStringTableD1Ev(ptr noundef nonnull align 8 dereferenceable(108) %9) #7
  call void @_ZN8CHeapObjIL8MEMFLAGS9EEdlEPv(ptr noundef %9) #7
  br label %12

12:                                               ; preds = %11, %7
  %13 = getelementptr inbounds %class.ElfFile, ptr %3, i32 0, i32 5
  store ptr null, ptr %13, align 8
  br label %14

14:                                               ; preds = %12, %1
  %15 = getelementptr inbounds %class.ElfFile, ptr %3, i32 0, i32 4
  %16 = load ptr, ptr %15, align 8
  %17 = icmp ne ptr %16, null
  br i1 %17, label %18, label %25

18:                                               ; preds = %14
  %19 = getelementptr inbounds %class.ElfFile, ptr %3, i32 0, i32 4
  %20 = load ptr, ptr %19, align 8
  %21 = icmp eq ptr %20, null
  br i1 %21, label %23, label %22

22:                                               ; preds = %18
  call void @_ZN14ElfSymbolTableD1Ev(ptr noundef nonnull align 8 dereferenceable(100) %20) #7
  call void @_ZN8CHeapObjIL8MEMFLAGS9EEdlEPv(ptr noundef %20) #7
  br label %23

23:                                               ; preds = %22, %18
  %24 = getelementptr inbounds %class.ElfFile, ptr %3, i32 0, i32 4
  store ptr null, ptr %24, align 8
  br label %25

25:                                               ; preds = %23, %14
  %26 = getelementptr inbounds %class.ElfFile, ptr %3, i32 0, i32 7
  %27 = load ptr, ptr %26, align 8
  %28 = icmp ne ptr %27, null
  br i1 %28, label %29, label %36

29:                                               ; preds = %25
  %30 = getelementptr inbounds %class.ElfFile, ptr %3, i32 0, i32 7
  %31 = load ptr, ptr %30, align 8
  %32 = icmp eq ptr %31, null
  br i1 %32, label %34, label %33

33:                                               ; preds = %29
  call void @_ZN16ElfFuncDescTableD1Ev(ptr noundef nonnull align 8 dereferenceable(96) %31) #7
  call void @_ZN8CHeapObjIL8MEMFLAGS9EEdlEPv(ptr noundef %31) #7
  br label %34

34:                                               ; preds = %33, %29
  %35 = getelementptr inbounds %class.ElfFile, ptr %3, i32 0, i32 7
  store ptr null, ptr %35, align 8
  br label %36

36:                                               ; preds = %34, %25
  ret void
}

; Function Attrs: mustprogress nounwind uwtable
define hidden void @_ZN7ElfFileD2Ev(ptr noundef nonnull align 8 dereferenceable(144) %0) unnamed_addr #1 align 2 {
  %2 = alloca ptr, align 8
  store ptr %0, ptr %2, align 8
  %3 = load ptr, ptr %2, align 8
  store ptr getelementptr inbounds inrange(-16, 16) ({ [4 x ptr] }, ptr @_ZTV7ElfFile, i32 0, i32 0, i32 2), ptr %3, align 8
  call void @_ZN7ElfFile14cleanup_tablesEv(ptr noundef nonnull align 8 dereferenceable(144) %3)
  %4 = getelementptr inbounds %class.ElfFile, ptr %3, i32 0, i32 3
  %5 = load ptr, ptr %4, align 8
  %6 = icmp ne ptr %5, null
  br i1 %6, label %7, label %11

7:                                                ; preds = %1
  %8 = getelementptr inbounds %class.ElfFile, ptr %3, i32 0, i32 3
  %9 = load ptr, ptr %8, align 8
  %10 = call i32 @fclose(ptr noundef %9)
  br label %11

11:                                               ; preds = %7, %1
  %12 = getelementptr inbounds %class.ElfFile, ptr %3, i32 0, i32 2
  %13 = load ptr, ptr %12, align 8
  %14 = icmp ne ptr %13, null
  br i1 %14, label %15, label %19

15:                                               ; preds = %11
  %16 = getelementptr inbounds %class.ElfFile, ptr %3, i32 0, i32 2
  %17 = load ptr, ptr %16, align 8
  call void @_ZN2os4freeEPv(ptr noundef %17)
  %18 = getelementptr inbounds %class.ElfFile, ptr %3, i32 0, i32 2
  store ptr null, ptr %18, align 8
  br label %19

19:                                               ; preds = %15, %11
  %20 = getelementptr inbounds %class.ElfFile, ptr %3, i32 0, i32 6
  %21 = load ptr, ptr %20, align 8
  %22 = icmp ne ptr %21, null
  br i1 %22, label %23, label %30

23:                                               ; preds = %19
  %24 = getelementptr inbounds %class.ElfFile, ptr %3, i32 0, i32 6
  %25 = load ptr, ptr %24, align 8
  %26 = icmp eq ptr %25, null
  br i1 %26, label %28, label %27

27:                                               ; preds = %23
  call void @_ZN14ElfStringTableD1Ev(ptr noundef nonnull align 8 dereferenceable(108) %25) #7
  call void @_ZN8CHeapObjIL8MEMFLAGS9EEdlEPv(ptr noundef %25) #7
  br label %28

28:                                               ; preds = %27, %23
  %29 = getelementptr inbounds %class.ElfFile, ptr %3, i32 0, i32 6
  store ptr null, ptr %29, align 8
  br label %30

30:                                               ; preds = %28, %19
  %31 = getelementptr inbounds %class.ElfFile, ptr %3, i32 0, i32 1
  %32 = load ptr, ptr %31, align 8
  %33 = icmp ne ptr %32, null
  br i1 %33, label %34, label %44

34:                                               ; preds = %30
  %35 = getelementptr inbounds %class.ElfFile, ptr %3, i32 0, i32 1
  %36 = load ptr, ptr %35, align 8
  %37 = icmp eq ptr %36, null
  br i1 %37, label %42, label %38

38:                                               ; preds = %34
  %39 = load ptr, ptr %36, align 8
  %40 = getelementptr inbounds ptr, ptr %39, i64 1
  %41 = load ptr, ptr %40, align 8
  call void %41(ptr noundef nonnull align 8 dereferenceable(144) %36) #7
  br label %42

42:                                               ; preds = %38, %34
  %43 = getelementptr inbounds %class.ElfFile, ptr %3, i32 0, i32 1
  store ptr null, ptr %43, align 8
  br label %44

44:                                               ; preds = %42, %30
  %45 = getelementptr inbounds %class.ElfFile, ptr %3, i32 0, i32 9
  %46 = load ptr, ptr %45, align 8
  %47 = icmp ne ptr %46, null
  br i1 %47, label %48, label %58

48:                                               ; preds = %44
  %49 = getelementptr inbounds %class.ElfFile, ptr %3, i32 0, i32 9
  %50 = load ptr, ptr %49, align 8
  %51 = icmp eq ptr %50, null
  br i1 %51, label %56, label %52

52:                                               ; preds = %48
  %53 = load ptr, ptr %50, align 8
  %54 = getelementptr inbounds ptr, ptr %53, i64 1
  %55 = load ptr, ptr %54, align 8
  call void %55(ptr noundef nonnull align 8 dereferenceable(144) %50) #7
  br label %56

56:                                               ; preds = %52, %48
  %57 = getelementptr inbounds %class.ElfFile, ptr %3, i32 0, i32 9
  store ptr null, ptr %57, align 8
  br label %58

58:                                               ; preds = %56, %44
  ret void
}