; Function Attrs: mustprogress nounwind uwtable
define hidden void @_ZN7ElfFileD2Ev(ptr nocapture noundef nonnull align 8 dereferenceable(144) %0) unnamed_addr #0 align 2 {
  store ptr getelementptr inbounds inrange(-16, 16) (i8, ptr @_ZTV7ElfFile, i64 16), ptr %0, align 8
  %2 = getelementptr inbounds i8, ptr %0, i64 40
  %3 = load ptr, ptr %2, align 8
  %.not.i = icmp eq ptr %3, null
  br i1 %.not.i, label %5, label %4

4:                                                ; preds = %1
  tail call void @_ZN14ElfStringTableD1Ev(ptr noundef nonnull align 8 dereferenceable(108) %3) #15
  tail call void @_Z8FreeHeapPv(ptr noundef nonnull %3) #15
  store ptr null, ptr %2, align 8
  br label %5

5:                                                ; preds = %4, %1
  %6 = getelementptr inbounds i8, ptr %0, i64 32
  %7 = load ptr, ptr %6, align 8
  %.not3.i = icmp eq ptr %7, null
  br i1 %.not3.i, label %9, label %8

8:                                                ; preds = %5
  tail call void @_ZN14ElfSymbolTableD1Ev(ptr noundef nonnull align 8 dereferenceable(100) %7) #15
  tail call void @_Z8FreeHeapPv(ptr noundef nonnull %7) #15
  store ptr null, ptr %6, align 8
  br label %9

9:                                                ; preds = %8, %5
  %10 = getelementptr inbounds i8, ptr %0, i64 56
  %11 = load ptr, ptr %10, align 8
  %.not4.i = icmp eq ptr %11, null
  br i1 %.not4.i, label %_ZN7ElfFile14cleanup_tablesEv.exit, label %12

12:                                               ; preds = %9
  tail call void @_ZN16ElfFuncDescTableD1Ev(ptr noundef nonnull align 8 dereferenceable(96) %11) #15
  tail call void @_Z8FreeHeapPv(ptr noundef nonnull %11) #15
  store ptr null, ptr %10, align 8
  br label %_ZN7ElfFile14cleanup_tablesEv.exit

_ZN7ElfFile14cleanup_tablesEv.exit:               ; preds = %9, %12
  %13 = getelementptr inbounds i8, ptr %0, i64 24
  %14 = load ptr, ptr %13, align 8
  %.not = icmp eq ptr %14, null
  br i1 %.not, label %17, label %15

15:                                               ; preds = %_ZN7ElfFile14cleanup_tablesEv.exit
  %16 = tail call i32 @fclose(ptr noundef nonnull %14)
  br label %17

17:                                               ; preds = %15, %_ZN7ElfFile14cleanup_tablesEv.exit
  %18 = getelementptr inbounds i8, ptr %0, i64 16
  %19 = load ptr, ptr %18, align 8
  %.not5 = icmp eq ptr %19, null
  br i1 %.not5, label %21, label %20

20:                                               ; preds = %17
  tail call void @_ZN2os4freeEPv(ptr noundef nonnull %19) #15
  store ptr null, ptr %18, align 8
  br label %21

21:                                               ; preds = %20, %17
  %22 = getelementptr inbounds i8, ptr %0, i64 48
  %23 = load ptr, ptr %22, align 8
  %.not6 = icmp eq ptr %23, null
  br i1 %.not6, label %25, label %24

24:                                               ; preds = %21
  tail call void @_ZN14ElfStringTableD1Ev(ptr noundef nonnull align 8 dereferenceable(108) %23) #15
  tail call void @_Z8FreeHeapPv(ptr noundef nonnull %23) #15
  store ptr null, ptr %22, align 8
  br label %25

25:                                               ; preds = %24, %21
  %26 = getelementptr inbounds i8, ptr %0, i64 8
  %27 = load ptr, ptr %26, align 8
  %.not7 = icmp eq ptr %27, null
  br i1 %.not7, label %32, label %28

28:                                               ; preds = %25
  %29 = load ptr, ptr %27, align 8
  %30 = getelementptr inbounds i8, ptr %29, i64 8
  %31 = load ptr, ptr %30, align 8
  tail call void %31(ptr noundef nonnull align 8 dereferenceable(144) %27) #15
  store ptr null, ptr %26, align 8
  br label %32

32:                                               ; preds = %28, %25
  %33 = getelementptr inbounds i8, ptr %0, i64 72
  %34 = load ptr, ptr %33, align 8
  %.not8 = icmp eq ptr %34, null
  br i1 %.not8, label %39, label %35

35:                                               ; preds = %32
  %36 = load ptr, ptr %34, align 8
  %37 = getelementptr inbounds i8, ptr %36, i64 8
  %38 = load ptr, ptr %37, align 8
  tail call void %38(ptr noundef nonnull align 8 dereferenceable(144) %34) #15
  store ptr null, ptr %33, align 8
  br label %39

39:                                               ; preds = %35, %32
  ret void
}